; Function Attrs: nounwind uwtable
define internal range(i32 0, 23) i32 @tcache_create_ctl(ptr noundef %0, ptr readnone captures(none) %1, i64 %2, ptr noundef writeonly captures(address_is_null) %3, ptr noundef captures(address_is_null) %4, ptr noundef readnone captures(address_is_null) %5, i64 noundef %6) #0 {
  %8 = alloca i32, align 4
  call void @llvm.lifetime.start.p0(i64 4, ptr nonnull %8) #14
  %9 = icmp ne ptr %5, null
  %10 = icmp ne i64 %6, 0
  %or.cond = or i1 %9, %10
  br i1 %or.cond, label %25, label %11

11:                                               ; preds = %7
  %12 = icmp eq ptr %3, null
  %13 = icmp eq ptr %4, null
  %or.cond3 = or i1 %12, %13
  br i1 %or.cond3, label %16, label %14

14:                                               ; preds = %11
  %15 = load i64, ptr %4, align 8, !tbaa !3
  %.not = icmp eq i64 %15, 4
  br i1 %.not, label %17, label %.thread

16:                                               ; preds = %11
  br i1 %13, label %25, label %.thread

.thread:                                          ; preds = %14, %16
  store i64 0, ptr %4, align 8, !tbaa !3
  br label %25

17:                                               ; preds = %14
  %18 = tail call ptr @duckdb_je_b0get() #14
  %19 = call zeroext i1 @duckdb_je_tcaches_create(ptr noundef %0, ptr noundef %18, ptr noundef nonnull %8) #14
  br i1 %19, label %25, label %20

20:                                               ; preds = %17
  %21 = load i64, ptr %4, align 8, !tbaa !3
  %.not29 = icmp eq i64 %21, 4
  br i1 %.not29, label %23, label %22

22:                                               ; preds = %20
  %spec.select = call i64 @llvm.umin.i64(i64 %21, i64 4)
  call void @llvm.memcpy.p0.p0.i64(ptr nonnull align 1 %3, ptr nonnull align 4 %8, i64 %spec.select, i1 false)
  store i64 %spec.select, ptr %4, align 8, !tbaa !3
  br label %25

23:                                               ; preds = %20
  %24 = load i32, ptr %8, align 4, !tbaa !88
  store i32 %24, ptr %3, align 4, !tbaa !88
  br label %25

25:                                               ; preds = %23, %22, %7, %.thread, %16, %17
  %.025 = phi i32 [ 22, %22 ], [ 0, %23 ], [ 1, %7 ], [ 22, %.thread ], [ 22, %16 ], [ 14, %17 ]
  call void @llvm.lifetime.end.p0(i64 4, ptr nonnull %8) #14
  ret i32 %.025
}